target datalayout = "e-m:e-p270:32:32-p271:32:32-p272:64:64-i64:64-i128:128-f80:128-n8:16:32:64-S128"
target triple = "x86_64-unknown-linux-gnu"

%class.doc_manager = type { %class.tbv_manager, ptr, %class.small_object_allocator }
%class.tbv_manager = type { %class.fixed_bit_vector_manager, %class.ptr_vector }
%class.fixed_bit_vector_manager = type <{ %class.small_object_allocator, i32, i32, i32, i32, %class.fixed_bit_vector, [4 x i8] }>
%class.fixed_bit_vector = type { [1 x i32] }
%class.ptr_vector = type { %class.vector }
%class.vector = type { ptr }
%class.small_object_allocator = type { [32 x ptr], [32 x ptr], i64 }
%class.doc = type { ptr, %class.union_bvec }
%class.union_bvec = type { %class.buffer }
%class.buffer = type { ptr, i32, i32, [8 x %"union.std::aligned_storage<8, 8>::type"] }
%"union.std::aligned_storage<8, 8>::type" = type { [8 x i8] }
%class.tbv_ref = type { ptr, ptr }

; Function Attrs: mustprogress nounwind uwtable
define linkonce_odr hidden noundef nonnull align 8 dereferenceable(8) ptr @_ZNK6bufferIP3tbvLb0ELj8EEixEj(ptr noundef nonnull align 8 dereferenceable(80) %this, i32 noundef %idx) #5 comdat align 2 {
entry:
  %this.addr = alloca ptr, align 8
  %idx.addr = alloca i32, align 4
  store ptr %this, ptr %this.addr, align 8
  store i32 %idx, ptr %idx.addr, align 4
  %this1 = load ptr, ptr %this.addr, align 8
  %m_buffer = getelementptr inbounds %class.buffer, ptr %this1, i32 0, i32 0
  %0 = load ptr, ptr %m_buffer, align 8
  %1 = load i32, ptr %idx.addr, align 4
  %idxprom = zext i32 %1 to i64
  %arrayidx = getelementptr inbounds ptr, ptr %0, i64 %idxprom
  ret ptr %arrayidx
}

; Function Attrs: mustprogress nounwind uwtable
define linkonce_odr hidden noundef i32 @_ZNK6bufferIP3tbvLb0ELj8EE4sizeEv(ptr noundef nonnull align 8 dereferenceable(80) %this) #5 comdat align 2 {
entry:
  %this.addr = alloca ptr, align 8
  store ptr %this, ptr %this.addr, align 8
  %this1 = load ptr, ptr %this.addr, align 8
  %m_pos = getelementptr inbounds %class.buffer, ptr %this1, i32 0, i32 1
  %0 = load i32, ptr %m_pos, align 8
  ret i32 %0
}

; Function Attrs: mustprogress nounwind uwtable
define linkonce_odr hidden noundef ptr @_ZN7tbv_ref6detachEv(ptr noundef nonnull align 8 dereferenceable(16) %this) #5 comdat align 2 {
entry:
  %this.addr = alloca ptr, align 8
  %result = alloca ptr, align 8
  store ptr %this, ptr %this.addr, align 8
  %this1 = load ptr, ptr %this.addr, align 8
  %d = getelementptr inbounds %class.tbv_ref, ptr %this1, i32 0, i32 1
  %0 = load ptr, ptr %d, align 8
  store ptr %0, ptr %result, align 8
  %d2 = getelementptr inbounds %class.tbv_ref, ptr %this1, i32 0, i32 1
  store ptr null, ptr %d2, align 8
  %1 = load ptr, ptr %result, align 8
  ret ptr %1
}

; Function Attrs: mustprogress nounwind uwtable
define linkonce_odr hidden noundef nonnull align 4 dereferenceable(4) ptr @_ZN7tbv_refdeEv(ptr noundef nonnull align 8 dereferenceable(16) %this) #5 comdat align 2 {
entry:
  %this.addr = alloca ptr, align 8
  store ptr %this, ptr %this.addr, align 8
  %this1 = load ptr, ptr %this.addr, align 8
  %d = getelementptr inbounds %class.tbv_ref, ptr %this1, i32 0, i32 1
  %0 = load ptr, ptr %d, align 8
  ret ptr %0
}

; Function Attrs: mustprogress uwtable
define linkonce_odr hidden noundef nonnull align 8 dereferenceable(16) ptr @_ZN7tbv_refaSEP3tbv(ptr noundef nonnull align 8 dereferenceable(16) %this, ptr noundef %d2) #4 comdat align 2 {
entry:
  %this.addr = alloca ptr, align 8
  %d2.addr = alloca ptr, align 8
  store ptr %this, ptr %this.addr, align 8
  store ptr %d2, ptr %d2.addr, align 8
  %this1 = load ptr, ptr %this.addr, align 8
  %d = getelementptr inbounds %class.tbv_ref, ptr %this1, i32 0, i32 1
  %0 = load ptr, ptr %d, align 8
  %tobool = icmp ne ptr %0, null
  br i1 %tobool, label %if.then, label %if.end

if.then:                                          ; preds = %entry
  %mgr = getelementptr inbounds %class.tbv_ref, ptr %this1, i32 0, i32 0
  %1 = load ptr, ptr %mgr, align 8
  %d3 = getelementptr inbounds %class.tbv_ref, ptr %this1, i32 0, i32 1
  %2 = load ptr, ptr %d3, align 8
  call void @_ZN11tbv_manager10deallocateEP3tbv(ptr noundef nonnull align 8 dereferenceable(552) %1, ptr noundef %2)
  br label %if.end

if.end:                                           ; preds = %if.then, %entry
  %3 = load ptr, ptr %d2.addr, align 8
  %d4 = getelementptr inbounds %class.tbv_ref, ptr %this1, i32 0, i32 1
  store ptr %3, ptr %d4, align 8
  ret ptr %this1
}

; Function Attrs: mustprogress uwtable
define linkonce_odr hidden noundef nonnull align 4 dereferenceable(4) ptr @_ZNK10union_bvecI11tbv_manager3tbvEixEj(ptr noundef nonnull align 8 dereferenceable(80) %this, i32 noundef %idx) #4 comdat align 2 {
entry:
  %this.addr = alloca ptr, align 8
  %idx.addr = alloca i32, align 4
  store ptr %this, ptr %this.addr, align 8
  store i32 %idx, ptr %idx.addr, align 4
  %this1 = load ptr, ptr %this.addr, align 8
  %m_elems = getelementptr inbounds %class.union_bvec, ptr %this1, i32 0, i32 0
  %0 = load i32, ptr %idx.addr, align 4
  %call = call noundef nonnull align 8 dereferenceable(8) ptr @_ZNK6bufferIP3tbvLb0ELj8EEixEj(ptr noundef nonnull align 8 dereferenceable(80) %m_elems, i32 noundef %0)
  %1 = load ptr, ptr %call, align 8
  ret ptr %1
}

; Function Attrs: mustprogress uwtable
define linkonce_odr hidden noundef i32 @_ZNK10union_bvecI11tbv_manager3tbvE4sizeEv(ptr noundef nonnull align 8 dereferenceable(80) %this) #4 comdat align 2 {
entry:
  %this.addr = alloca ptr, align 8
  store ptr %this, ptr %this.addr, align 8
  %this1 = load ptr, ptr %this.addr, align 8
  %m_elems = getelementptr inbounds %class.union_bvec, ptr %this1, i32 0, i32 0
  %call = call noundef i32 @_ZNK6bufferIP3tbvLb0ELj8EE4sizeEv(ptr noundef nonnull align 8 dereferenceable(80) %m_elems)
  ret i32 %call
}

; Function Attrs: mustprogress nounwind uwtable
define linkonce_odr hidden noundef nonnull align 8 dereferenceable(80) ptr @_ZNK3doc3negEv(ptr noundef nonnull align 8 dereferenceable(88) %this) #5 comdat align 2 {
entry:
  %this.addr = alloca ptr, align 8
  store ptr %this, ptr %this.addr, align 8
  %this1 = load ptr, ptr %this.addr, align 8
  %m_neg = getelementptr inbounds %class.doc, ptr %this1, i32 0, i32 1
  ret ptr %m_neg
}

; Function Attrs: mustprogress nounwind uwtable
define linkonce_odr hidden void @_ZN7tbv_refC2ER11tbv_manager(ptr noundef nonnull align 8 dereferenceable(16) %this, ptr noundef nonnull align 8 dereferenceable(552) %mgr) unnamed_addr #5 comdat align 2 {
entry:
  %this.addr = alloca ptr, align 8
  %mgr.addr = alloca ptr, align 8
  store ptr %this, ptr %this.addr, align 8
  store ptr %mgr, ptr %mgr.addr, align 8
  %this1 = load ptr, ptr %this.addr, align 8
  %mgr2 = getelementptr inbounds %class.tbv_ref, ptr %this1, i32 0, i32 0
  %0 = load ptr, ptr %mgr.addr, align 8
  store ptr %0, ptr %mgr2, align 8
  %d = getelementptr inbounds %class.tbv_ref, ptr %this1, i32 0, i32 1
  store ptr null, ptr %d, align 8
  ret void
}

; Function Attrs: mustprogress nounwind uwtable
define linkonce_odr hidden noundef nonnull align 8 dereferenceable(80) ptr @_ZN3doc3negEv(ptr noundef nonnull align 8 dereferenceable(88) %this) #5 comdat align 2 {
entry:
  %this.addr = alloca ptr, align 8
  store ptr %this, ptr %this.addr, align 8
  %this1 = load ptr, ptr %this.addr, align 8
  %m_neg = getelementptr inbounds %class.doc, ptr %this1, i32 0, i32 1
  ret ptr %m_neg
}

; Function Attrs: mustprogress nounwind uwtable
define linkonce_odr hidden noundef nonnull align 4 dereferenceable(4) ptr @_ZNK3doc3posEv(ptr noundef nonnull align 8 dereferenceable(88) %this) #5 comdat align 2 {
entry:
  %this.addr = alloca ptr, align 8
  store ptr %this, ptr %this.addr, align 8
  %this1 = load ptr, ptr %this.addr, align 8
  %m_pos = getelementptr inbounds %class.doc, ptr %this1, i32 0, i32 0
  %0 = load ptr, ptr %m_pos, align 8
  ret ptr %0
}

; Function Attrs: mustprogress nounwind uwtable
define linkonce_odr hidden noundef nonnull align 4 dereferenceable(4) ptr @_ZN3doc3posEv(ptr noundef nonnull align 8 dereferenceable(88) %this) #5 comdat align 2 {
entry:
  %this.addr = alloca ptr, align 8
  store ptr %this, ptr %this.addr, align 8
  %this1 = load ptr, ptr %this.addr, align 8
  %m_pos = getelementptr inbounds %class.doc, ptr %this1, i32 0, i32 0
  %0 = load ptr, ptr %m_pos, align 8
  ret ptr %0
}

; Function Attrs: mustprogress uwtable
define hidden noundef zeroext i1 @_ZN11doc_manager7set_andER3docRKS0_(ptr noundef nonnull align 8 dereferenceable(1080) %this, ptr noundef nonnull align 8 dereferenceable(88) %dst, ptr noundef nonnull align 8 dereferenceable(88) %src) #4 align 2 personality ptr @__gxx_personality_v0 {
entry:
  %retval = alloca i1, align 1
  %this.addr = alloca ptr, align 8
  %dst.addr = alloca ptr, align 8
  %src.addr = alloca ptr, align 8
  %t = alloca %class.tbv_ref, align 8
  %i = alloca i32, align 4
  %exn.slot = alloca ptr, align 8
  %ehselector.slot = alloca i32, align 4
  store ptr %this, ptr %this.addr, align 8
  store ptr %dst, ptr %dst.addr, align 8
  store ptr %src, ptr %src.addr, align 8
  %this1 = load ptr, ptr %this.addr, align 8
  %m = getelementptr inbounds %class.doc_manager, ptr %this1, i32 0, i32 0
  %0 = load ptr, ptr %dst.addr, align 8
  %call = call noundef nonnull align 4 dereferenceable(4) ptr @_ZN3doc3posEv(ptr noundef nonnull align 8 dereferenceable(88) %0)
  %1 = load ptr, ptr %src.addr, align 8
  %call2 = call noundef nonnull align 4 dereferenceable(4) ptr @_ZNK3doc3posEv(ptr noundef nonnull align 8 dereferenceable(88) %1)
  %call3 = call noundef zeroext i1 @_ZNK11tbv_manager7set_andER3tbvRKS0_(ptr noundef nonnull align 8 dereferenceable(552) %m, ptr noundef nonnull align 4 dereferenceable(4) %call, ptr noundef nonnull align 4 dereferenceable(4) %call2)
  br i1 %call3, label %if.end, label %if.then

if.then:                                          ; preds = %entry
  store i1 false, ptr %retval, align 1
  br label %return

if.end:                                           ; preds = %entry
  %2 = load ptr, ptr %dst.addr, align 8
  %call4 = call noundef nonnull align 8 dereferenceable(80) ptr @_ZN3doc3negEv(ptr noundef nonnull align 8 dereferenceable(88) %2)
  %m5 = getelementptr inbounds %class.doc_manager, ptr %this1, i32 0, i32 0
  %3 = load ptr, ptr %dst.addr, align 8
  %call6 = call noundef nonnull align 4 dereferenceable(4) ptr @_ZN3doc3posEv(ptr noundef nonnull align 8 dereferenceable(88) %3)
  call void @_ZN10union_bvecI11tbv_manager3tbvE9intersectERS0_RKS1_(ptr noundef nonnull align 8 dereferenceable(80) %call4, ptr noundef nonnull align 8 dereferenceable(552) %m5, ptr noundef nonnull align 4 dereferenceable(4) %call6)
  %m7 = getelementptr inbounds %class.doc_manager, ptr %this1, i32 0, i32 0
  call void @_ZN7tbv_refC2ER11tbv_manager(ptr noundef nonnull align 8 dereferenceable(16) %t, ptr noundef nonnull align 8 dereferenceable(552) %m7)
  store i32 0, ptr %i, align 4
  br label %for.cond

for.cond:                                         ; preds = %for.inc, %if.end
  %4 = load i32, ptr %i, align 4
  %5 = load ptr, ptr %src.addr, align 8
  %call8 = invoke noundef nonnull align 8 dereferenceable(80) ptr @_ZNK3doc3negEv(ptr noundef nonnull align 8 dereferenceable(88) %5)
          to label %invoke.cont unwind label %lpad

invoke.cont:                                      ; preds = %for.cond
  %call10 = invoke noundef i32 @_ZNK10union_bvecI11tbv_manager3tbvE4sizeEv(ptr noundef nonnull align 8 dereferenceable(80) %call8)
          to label %invoke.cont9 unwind label %lpad

invoke.cont9:                                     ; preds = %invoke.cont
  %cmp = icmp ult i32 %4, %call10
  br i1 %cmp, label %for.body, label %for.end

for.body:                                         ; preds = %invoke.cont9
  %m11 = getelementptr inbounds %class.doc_manager, ptr %this1, i32 0, i32 0
  %6 = load ptr, ptr %src.addr, align 8
  %call13 = invoke noundef nonnull align 8 dereferenceable(80) ptr @_ZNK3doc3negEv(ptr noundef nonnull align 8 dereferenceable(88) %6)
          to label %invoke.cont12 unwind label %lpad

invoke.cont12:                                    ; preds = %for.body
  %7 = load i32, ptr %i, align 4
  %call15 = invoke noundef nonnull align 4 dereferenceable(4) ptr @_ZNK10union_bvecI11tbv_manager3tbvEixEj(ptr noundef nonnull align 8 dereferenceable(80) %call13, i32 noundef %7)
          to label %invoke.cont14 unwind label %lpad

invoke.cont14:                                    ; preds = %invoke.cont12
  %call17 = invoke noundef ptr @_ZN11tbv_manager8allocateERK3tbv(ptr noundef nonnull align 8 dereferenceable(552) %m11, ptr noundef nonnull align 4 dereferenceable(4) %call15)
          to label %invoke.cont16 unwind label %lpad

invoke.cont16:                                    ; preds = %invoke.cont14
  %call19 = invoke noundef nonnull align 8 dereferenceable(16) ptr @_ZN7tbv_refaSEP3tbv(ptr noundef nonnull align 8 dereferenceable(16) %t, ptr noundef %call17)
          to label %invoke.cont18 unwind label %lpad

invoke.cont18:                                    ; preds = %invoke.cont16
  %m20 = getelementptr inbounds %class.doc_manager, ptr %this1, i32 0, i32 0
  %call22 = invoke noundef nonnull align 4 dereferenceable(4) ptr @_ZN7tbv_refdeEv(ptr noundef nonnull align 8 dereferenceable(16) %t)
          to label %invoke.cont21 unwind label %lpad

invoke.cont21:                                    ; preds = %invoke.cont18
  %8 = load ptr, ptr %dst.addr, align 8
  %call24 = invoke noundef nonnull align 4 dereferenceable(4) ptr @_ZN3doc3posEv(ptr noundef nonnull align 8 dereferenceable(88) %8)
          to label %invoke.cont23 unwind label %lpad

invoke.cont23:                                    ; preds = %invoke.cont21
  %call26 = invoke noundef zeroext i1 @_ZNK11tbv_manager7set_andER3tbvRKS0_(ptr noundef nonnull align 8 dereferenceable(552) %m20, ptr noundef nonnull align 4 dereferenceable(4) %call22, ptr noundef nonnull align 4 dereferenceable(4) %call24)
          to label %invoke.cont25 unwind label %lpad

invoke.cont25:                                    ; preds = %invoke.cont23
  br i1 %call26, label %if.then27, label %if.end35

if.then27:                                        ; preds = %invoke.cont25
  %9 = load ptr, ptr %dst.addr, align 8
  %call29 = invoke noundef nonnull align 8 dereferenceable(80) ptr @_ZN3doc3negEv(ptr noundef nonnull align 8 dereferenceable(88) %9)
          to label %invoke.cont28 unwind label %lpad

invoke.cont28:                                    ; preds = %if.then27
  %m30 = getelementptr inbounds %class.doc_manager, ptr %this1, i32 0, i32 0
  %call32 = invoke noundef ptr @_ZN7tbv_ref6detachEv(ptr noundef nonnull align 8 dereferenceable(16) %t)
          to label %invoke.cont31 unwind label %lpad

invoke.cont31:                                    ; preds = %invoke.cont28
  %call34 = invoke noundef zeroext i1 @_ZN10union_bvecI11tbv_manager3tbvE6insertERS0_PS1_(ptr noundef nonnull align 8 dereferenceable(80) %call29, ptr noundef nonnull align 8 dereferenceable(552) %m30, ptr noundef %call32)
          to label %invoke.cont33 unwind label %lpad

invoke.cont33:                                    ; preds = %invoke.cont31
  br label %if.end35

lpad:                                             ; preds = %for.end, %invoke.cont31, %invoke.cont28, %if.then27, %invoke.cont23, %invoke.cont21, %invoke.cont18, %invoke.cont16, %invoke.cont14, %invoke.cont12, %for.body, %invoke.cont, %for.cond
  %10 = landingpad { ptr, i32 }
          cleanup
  %11 = extractvalue { ptr, i32 } %10, 0
  store ptr %11, ptr %exn.slot, align 8
  %12 = extractvalue { ptr, i32 } %10, 1
  store i32 %12, ptr %ehselector.slot, align 4
  call void @_ZN7tbv_refD2Ev(ptr noundef nonnull align 8 dereferenceable(16) %t) #3
  br label %eh.resume

if.end35:                                         ; preds = %invoke.cont33, %invoke.cont25
  br label %for.inc

for.inc:                                          ; preds = %if.end35
  %13 = load i32, ptr %i, align 4
  %inc = add i32 %13, 1
  store i32 %inc, ptr %i, align 4
  br label %for.cond, !llvm.loop !10

for.end:                                          ; preds = %invoke.cont9
  %14 = load ptr, ptr %dst.addr, align 8
  %call37 = invoke noundef zeroext i1 @_ZN11doc_manager8fold_negER3doc(ptr noundef nonnull align 8 dereferenceable(1080) %this1, ptr noundef nonnull align 8 dereferenceable(88) %14)
          to label %invoke.cont36 unwind label %lpad

invoke.cont36:                                    ; preds = %for.end
  store i1 %call37, ptr %retval, align 1
  call void @_ZN7tbv_refD2Ev(ptr noundef nonnull align 8 dereferenceable(16) %t) #3
  br label %return

return:                                           ; preds = %invoke.cont36, %if.then
  %15 = load i1, ptr %retval, align 1
  ret i1 %15

eh.resume:                                        ; preds = %lpad
  %exn = load ptr, ptr %exn.slot, align 8
  %sel = load i32, ptr %ehselector.slot, align 4
  %lpad.val = insertvalue { ptr, i32 } poison, ptr %exn, 0
  %lpad.val38 = insertvalue { ptr, i32 } %lpad.val, i32 %sel, 1
  resume { ptr, i32 } %lpad.val38
}