; Function Attrs: mustprogress uwtable
define hidden noundef zeroext i1 @_ZN11doc_manager7set_andER3docRKS0_(ptr noundef nonnull align 8 dereferenceable(1080) %this, ptr noundef nonnull align 8 dereferenceable(88) %dst, ptr nocapture noundef nonnull readonly align 8 dereferenceable(88) %src) local_unnamed_addr #3 align 2 personality ptr @__gxx_personality_v0 {
entry:
  %t = alloca %class.tbv_ref, align 8
  %0 = load ptr, ptr %dst, align 8
  %1 = load ptr, ptr %src, align 8
  %call3 = tail call noundef zeroext i1 @_ZNK11tbv_manager7set_andER3tbvRKS0_(ptr noundef nonnull align 8 dereferenceable(552) %this, ptr noundef nonnull align 4 dereferenceable(4) %0, ptr noundef nonnull align 4 dereferenceable(4) %1)
  br i1 %call3, label %if.end, label %return

if.end:                                           ; preds = %entry
  %m_neg.i = getelementptr inbounds i8, ptr %dst, i64 8
  %2 = load ptr, ptr %dst, align 8
  tail call void @_ZN10union_bvecI11tbv_manager3tbvE9intersectERS0_RKS1_(ptr noundef nonnull align 8 dereferenceable(80) %m_neg.i, ptr noundef nonnull align 8 dereferenceable(552) %this, ptr noundef nonnull align 4 dereferenceable(4) %2)
  store ptr %this, ptr %t, align 8
  %d.i = getelementptr inbounds i8, ptr %t, i64 8
  store ptr null, ptr %d.i, align 8
  %m_pos.i.i = getelementptr inbounds i8, ptr %src, i64 16
  %3 = load i32, ptr %m_pos.i.i, align 8
  %cmp21.not = icmp eq i32 %3, 0
  br i1 %cmp21.not, label %for.end, label %invoke.cont14.lr.ph

invoke.cont14.lr.ph:                              ; preds = %if.end
  %m_neg.i10 = getelementptr inbounds i8, ptr %src, i64 8
  br label %invoke.cont14

invoke.cont14:                                    ; preds = %invoke.cont14.lr.ph, %for.inc
  %4 = phi ptr [ null, %invoke.cont14.lr.ph ], [ %9, %for.inc ]
  %indvars.iv = phi i64 [ 0, %invoke.cont14.lr.ph ], [ %indvars.iv.next, %for.inc ]
  %5 = load ptr, ptr %m_neg.i10, align 8
  %arrayidx.i.i = getelementptr inbounds ptr, ptr %5, i64 %indvars.iv
  %6 = load ptr, ptr %arrayidx.i.i, align 8
  %call17 = invoke noundef ptr @_ZN11tbv_manager8allocateERK3tbv(ptr noundef nonnull align 8 dereferenceable(552) %this, ptr noundef nonnull align 4 dereferenceable(4) %6)
          to label %invoke.cont16 unwind label %lpad.loopexit

invoke.cont16:                                    ; preds = %invoke.cont14
  %tobool.not.i = icmp eq ptr %4, null
  br i1 %tobool.not.i, label %invoke.cont18, label %if.then.i

if.then.i:                                        ; preds = %invoke.cont16
  %7 = load ptr, ptr %t, align 8
  invoke void @_ZN11tbv_manager10deallocateEP3tbv(ptr noundef nonnull align 8 dereferenceable(552) %7, ptr noundef nonnull %4)
          to label %invoke.cont18 unwind label %lpad.loopexit

invoke.cont18:                                    ; preds = %invoke.cont16, %if.then.i
  store ptr %call17, ptr %d.i, align 8
  %8 = load ptr, ptr %dst, align 8
  %call26 = invoke noundef zeroext i1 @_ZNK11tbv_manager7set_andER3tbvRKS0_(ptr noundef nonnull align 8 dereferenceable(552) %this, ptr noundef nonnull align 4 dereferenceable(4) %call17, ptr noundef nonnull align 4 dereferenceable(4) %8)
          to label %invoke.cont25 unwind label %lpad.loopexit

invoke.cont25:                                    ; preds = %invoke.cont18
  br i1 %call26, label %if.then27, label %for.inc

if.then27:                                        ; preds = %invoke.cont25
  store ptr null, ptr %d.i, align 8
  %call34 = invoke noundef zeroext i1 @_ZN10union_bvecI11tbv_manager3tbvE6insertERS0_PS1_(ptr noundef nonnull align 8 dereferenceable(80) %m_neg.i, ptr noundef nonnull align 8 dereferenceable(552) %this, ptr noundef nonnull %call17)
          to label %for.inc unwind label %lpad.loopexit

lpad.loopexit:                                    ; preds = %invoke.cont14, %invoke.cont18, %if.then27, %if.then.i
  %lpad.loopexit19 = landingpad { ptr, i32 }
          cleanup
  br label %lpad

lpad.loopexit.split-lp:                           ; preds = %for.end
  %lpad.loopexit.split-lp20 = landingpad { ptr, i32 }
          cleanup
  br label %lpad

lpad:                                             ; preds = %lpad.loopexit.split-lp, %lpad.loopexit
  %lpad.phi = phi { ptr, i32 } [ %lpad.loopexit19, %lpad.loopexit ], [ %lpad.loopexit.split-lp20, %lpad.loopexit.split-lp ]
  call void @_ZN7tbv_refD2Ev(ptr noundef nonnull align 8 dereferenceable(16) %t) #16
  resume { ptr, i32 } %lpad.phi

for.inc:                                          ; preds = %invoke.cont25, %if.then27
  %9 = phi ptr [ %call17, %invoke.cont25 ], [ null, %if.then27 ]
  %indvars.iv.next = add nuw nsw i64 %indvars.iv, 1
  %10 = load i32, ptr %m_pos.i.i, align 8
  %11 = zext i32 %10 to i64
  %cmp = icmp ult i64 %indvars.iv.next, %11
  br i1 %cmp, label %invoke.cont14, label %for.end, !llvm.loop !10

for.end:                                          ; preds = %for.inc, %if.end
  %12 = phi ptr [ null, %if.end ], [ %9, %for.inc ]
  %call37 = invoke noundef zeroext i1 @_ZN11doc_manager8fold_negER3doc(ptr noundef nonnull align 8 dereferenceable(1080) %this, ptr noundef nonnull align 8 dereferenceable(88) %dst)
          to label %invoke.cont36 unwind label %lpad.loopexit.split-lp

invoke.cont36:                                    ; preds = %for.end
  %tobool.not.i17 = icmp eq ptr %12, null
  br i1 %tobool.not.i17, label %return, label %if.then.i18

if.then.i18:                                      ; preds = %invoke.cont36
  %13 = load ptr, ptr %t, align 8
  invoke void @_ZN11tbv_manager10deallocateEP3tbv(ptr noundef nonnull align 8 dereferenceable(552) %13, ptr noundef nonnull %12)
          to label %return unwind label %terminate.lpad.i

terminate.lpad.i:                                 ; preds = %if.then.i18
  %14 = landingpad { ptr, i32 }
          catch ptr null
  %15 = extractvalue { ptr, i32 } %14, 0
  tail call void @__clang_call_terminate(ptr %15) #17
  unreachable

return:                                           ; preds = %if.then.i18, %invoke.cont36, %entry
  %retval.0 = phi i1 [ false, %entry ], [ %call37, %invoke.cont36 ], [ %call37, %if.then.i18 ]
  ret i1 %retval.0
}